target datalayout = "e-m:e-p270:32:32-p271:32:32-p272:64:64-i64:64-i128:128-f80:128-n8:16:32:64-S128"
target triple = "x86_64-pc-linux-gnu"

%"class.std::chrono::time_point" = type { %"class.std::chrono::duration.2" }
%"class.std::chrono::duration.2" = type { i64 }
%"class.std::__cxx11::basic_string" = type { %"struct.std::__cxx11::basic_string<char>::_Alloc_hider", i64, %union.anon }
%"struct.std::__cxx11::basic_string<char>::_Alloc_hider" = type { ptr }
%union.anon = type { i64, [8 x i8] }
%union.pthread_mutex_t = type { %struct.__pthread_mutex_s }
%struct.__pthread_mutex_s = type { i32, i32, i32, i32, i32, i16, i16, %struct.__pthread_internal_list }
%struct.__pthread_internal_list = type { ptr, ptr }
%"class.google::LogDestination" = type { %"class.google::(anonymous namespace)::LogFileObject", ptr }
%"class.google::(anonymous namespace)::LogFileObject" = type { %"class.google::base::Logger", %"class.std::mutex", i8, %"class.std::__cxx11::basic_string", %"class.std::__cxx11::basic_string", %"class.std::__cxx11::basic_string", %"class.std::unique_ptr.11", i32, i32, i32, i32, i32, %"class.std::chrono::time_point", %"class.std::chrono::time_point" }
%"class.google::base::Logger" = type { ptr }
%"class.std::mutex" = type { %"class.std::__mutex_base" }
%"class.std::__mutex_base" = type { %union.pthread_mutex_t }
%"class.std::unique_ptr.11" = type { %"struct.std::__uniq_ptr_data.12" }
%"struct.std::__uniq_ptr_data.12" = type { %"class.std::__uniq_ptr_impl.13" }
%"class.std::__uniq_ptr_impl.13" = type { %"class.std::tuple.14" }
%"class.std::tuple.14" = type { %"struct.std::_Tuple_impl.15" }
%"struct.std::_Tuple_impl.15" = type { %"struct.std::_Head_base.18" }
%"struct.std::_Head_base.18" = type { ptr }

; Function Attrs: mustprogress nounwind uwtable
define hidden void @_ZN6google14LogDestination13SetLoggerImplEPNS_4base6LoggerE(ptr noundef nonnull align 8 dereferenceable(208) %0, ptr noundef %1) #2 align 2 {
  %3 = alloca ptr, align 8
  %4 = alloca ptr, align 8
  store ptr %0, ptr %3, align 8, !tbaa !80
  store ptr %1, ptr %4, align 8, !tbaa !53
  %5 = load ptr, ptr %3, align 8
  %6 = getelementptr inbounds nuw %"class.google::LogDestination", ptr %5, i32 0, i32 1
  %7 = load ptr, ptr %6, align 8, !tbaa !82
  %8 = load ptr, ptr %4, align 8, !tbaa !53
  %9 = icmp eq ptr %7, %8
  br i1 %9, label %10, label %11

10:                                               ; preds = %2
  br label %32

11:                                               ; preds = %2
  %12 = getelementptr inbounds nuw %"class.google::LogDestination", ptr %5, i32 0, i32 1
  %13 = load ptr, ptr %12, align 8, !tbaa !82
  %14 = icmp ne ptr %13, null
  br i1 %14, label %15, label %29

15:                                               ; preds = %11
  %16 = getelementptr inbounds nuw %"class.google::LogDestination", ptr %5, i32 0, i32 1
  %17 = load ptr, ptr %16, align 8, !tbaa !82
  %18 = getelementptr inbounds nuw %"class.google::LogDestination", ptr %5, i32 0, i32 0
  %19 = icmp ne ptr %17, %18
  br i1 %19, label %20, label %29

20:                                               ; preds = %15
  %21 = getelementptr inbounds nuw %"class.google::LogDestination", ptr %5, i32 0, i32 1
  %22 = load ptr, ptr %21, align 8, !tbaa !82
  %23 = icmp eq ptr %22, null
  br i1 %23, label %28, label %24

24:                                               ; preds = %20
  %25 = load ptr, ptr %22, align 8, !tbaa !15
  %26 = getelementptr inbounds ptr, ptr %25, i64 1
  %27 = load ptr, ptr %26, align 8
  call void %27(ptr noundef nonnull align 8 dereferenceable(8) %22) #5
  br label %28

28:                                               ; preds = %24, %20
  br label %29

29:                                               ; preds = %28, %15, %11
  %30 = load ptr, ptr %4, align 8, !tbaa !53
  %31 = getelementptr inbounds nuw %"class.google::LogDestination", ptr %5, i32 0, i32 1
  store ptr %30, ptr %31, align 8, !tbaa !82
  br label %32

32:                                               ; preds = %29, %10
  ret void
}

; Function Attrs: noinline noreturn nounwind uwtable
define linkonce_odr hidden void @__clang_call_terminate(ptr noundef %0) #6 comdat {
  %2 = call ptr @__cxa_begin_catch(ptr %0) #5
  call void @_ZSt9terminatev() #33
  unreachable
}

; Function Attrs: mustprogress nounwind uwtable
define linkonce_odr hidden void @_ZN6google14LogDestination15ResetLoggerImplEv(ptr noundef nonnull align 8 dereferenceable(208) %0) #2 comdat align 2 {
  %2 = alloca ptr, align 8
  store ptr %0, ptr %2, align 8, !tbaa !80
  %3 = load ptr, ptr %2, align 8
  %4 = getelementptr inbounds nuw %"class.google::LogDestination", ptr %3, i32 0, i32 0
  call void @_ZN6google14LogDestination13SetLoggerImplEPNS_4base6LoggerE(ptr noundef nonnull align 8 dereferenceable(208) %3, ptr noundef %4)
  ret void
}

; Function Attrs: mustprogress nounwind uwtable
define hidden void @_ZN6google14LogDestinationD2Ev(ptr noundef nonnull align 8 dereferenceable(208) %0) unnamed_addr #2 align 2 personality ptr @__gxx_personality_v0 {
  %2 = alloca ptr, align 8
  store ptr %0, ptr %2, align 8, !tbaa !80
  %3 = load ptr, ptr %2, align 8
  invoke void @_ZN6google14LogDestination15ResetLoggerImplEv(ptr noundef nonnull align 8 dereferenceable(208) %3)
          to label %4 unwind label %6

4:                                                ; preds = %1
  %5 = getelementptr inbounds nuw %"class.google::LogDestination", ptr %3, i32 0, i32 0
  call void @_ZN6google12_GLOBAL__N_113LogFileObjectD2Ev(ptr noundef nonnull align 8 dereferenceable(200) %5) #5
  ret void

6:                                                ; preds = %1
  %7 = landingpad { ptr, i32 }
          catch ptr null
  %8 = extractvalue { ptr, i32 } %7, 0
  call void @__clang_call_terminate(ptr %8) #33
  unreachable
}