; Function Attrs: mustprogress nounwind uwtable
define hidden void @_ZN6google14LogDestinationD2Ev(ptr noundef nonnull align 8 dereferenceable(208) %0) unnamed_addr #2 align 2 personality ptr @__gxx_personality_v0 {
  %2 = getelementptr inbounds nuw i8, ptr %0, i64 200
  %3 = load ptr, ptr %2, align 8, !tbaa !76
  %4 = icmp eq ptr %3, %0
  br i1 %4, label %_ZN6google14LogDestination15ResetLoggerImplEv.exit, label %5

5:                                                ; preds = %1
  %.not.i.i = icmp eq ptr %3, null
  br i1 %.not.i.i, label %10, label %6

6:                                                ; preds = %5
  %7 = load ptr, ptr %3, align 8, !tbaa !3
  %8 = getelementptr inbounds nuw i8, ptr %7, i64 8
  %9 = load ptr, ptr %8, align 8
  tail call void %9(ptr noundef nonnull align 8 dereferenceable(8) %3) #49
  br label %10

10:                                               ; preds = %6, %5
  store ptr %0, ptr %2, align 8, !tbaa !76
  br label %_ZN6google14LogDestination15ResetLoggerImplEv.exit

_ZN6google14LogDestination15ResetLoggerImplEv.exit: ; preds = %1, %10
  tail call void @_ZN6google12_GLOBAL__N_113LogFileObjectD2Ev(ptr noundef nonnull align 8 dereferenceable(200) %0) #49
  ret void
}